target datalayout = "e-m:e-p270:32:32-p271:32:32-p272:64:64-i64:64-i128:128-f80:128-n8:16:32:64-S128"
target triple = "x86_64-pc-linux-gnu"

%struct.MvcCoverStruct = type { i32, i32, i32, %struct.MvcListStruct, ptr, i32, ptr, ptr, ptr }
%struct.MvcListStruct = type { ptr, ptr, i32 }
%struct.MvcCubeStruct = type { ptr, i32, i32, [1 x i32] }

; Function Attrs: nounwind uwtable
define i32 @Mvc_CoverFirstCubeFirstLit(ptr noundef %0) #0 {
  %2 = alloca i32, align 4
  %3 = alloca ptr, align 8
  %4 = alloca ptr, align 8
  %5 = alloca i32, align 4
  %6 = alloca i32, align 4
  store ptr %0, ptr %3, align 8
  %7 = load ptr, ptr %3, align 8
  %8 = call ptr @Mvc_CoverReadCubeHead(ptr noundef %7)
  store ptr %8, ptr %4, align 8
  store i32 0, ptr %5, align 4
  br label %9

9:                                                ; preds = %37, %1
  %10 = load i32, ptr %5, align 4
  %11 = load ptr, ptr %3, align 8
  %12 = getelementptr inbounds %struct.MvcCoverStruct, ptr %11, i32 0, i32 2
  %13 = load i32, ptr %12, align 8
  %14 = icmp slt i32 %10, %13
  br i1 %14, label %15, label %29

15:                                               ; preds = %9
  %16 = load ptr, ptr %4, align 8
  %17 = getelementptr inbounds %struct.MvcCubeStruct, ptr %16, i32 0, i32 3
  %18 = load i32, ptr %5, align 4
  %19 = ashr i32 %18, 5
  %20 = sext i32 %19 to i64
  %21 = getelementptr inbounds [1 x i32], ptr %17, i64 0, i64 %20
  %22 = load i32, ptr %21, align 4
  %23 = load i32, ptr %5, align 4
  %24 = and i32 %23, 31
  %25 = shl i32 1, %24
  %26 = and i32 %22, %25
  %27 = icmp ugt i32 %26, 0
  %28 = zext i1 %27 to i32
  store i32 %28, ptr %6, align 4
  br label %29

29:                                               ; preds = %15, %9
  %30 = phi i1 [ false, %9 ], [ true, %15 ]
  br i1 %30, label %31, label %40

31:                                               ; preds = %29
  %32 = load i32, ptr %6, align 4
  %33 = icmp ne i32 %32, 0
  br i1 %33, label %34, label %36

34:                                               ; preds = %31
  %35 = load i32, ptr %5, align 4
  store i32 %35, ptr %2, align 4
  br label %41

36:                                               ; preds = %31
  br label %37

37:                                               ; preds = %36
  %38 = load i32, ptr %5, align 4
  %39 = add nsw i32 %38, 1
  store i32 %39, ptr %5, align 4
  br label %9, !llvm.loop !14

40:                                               ; preds = %29
  store i32 -1, ptr %2, align 4
  br label %41

41:                                               ; preds = %40, %34
  %42 = load i32, ptr %2, align 4
  ret i32 %42
}