; Function Attrs: nounwind uwtable
define range(i32 -2147483648, 2147483647) i32 @Mvc_CoverFirstCubeFirstLit(ptr noundef %0) local_unnamed_addr #1 {
  %2 = tail call ptr @Mvc_CoverReadCubeHead(ptr noundef %0) #5
  %3 = getelementptr inbounds nuw i8, ptr %2, i64 16
  %4 = getelementptr inbounds nuw i8, ptr %0, i64 8
  %5 = load i32, ptr %4, align 8
  %6 = icmp sgt i32 %5, 0
  br i1 %6, label %.lr.ph, label %.critedge

.lr.ph:                                           ; preds = %1, %14
  %.0910 = phi i32 [ %15, %14 ], [ 0, %1 ]
  %7 = lshr i32 %.0910, 5
  %8 = zext nneg i32 %7 to i64
  %9 = getelementptr inbounds nuw [1 x i32], ptr %3, i64 0, i64 %8
  %10 = load i32, ptr %9, align 4
  %11 = and i32 %.0910, 31
  %12 = shl nuw i32 1, %11
  %13 = and i32 %10, %12
  %.not = icmp eq i32 %13, 0
  br i1 %.not, label %14, label %.critedge

14:                                               ; preds = %.lr.ph
  %15 = add nuw nsw i32 %.0910, 1
  %exitcond.not = icmp eq i32 %15, %5
  br i1 %exitcond.not, label %.critedge, label %.lr.ph, !llvm.loop !11

.critedge:                                        ; preds = %.lr.ph, %14, %1
  %.0 = phi i32 [ -1, %1 ], [ -1, %14 ], [ %.0910, %.lr.ph ]
  ret i32 %.0
}